; Function Attrs: mustprogress nofree norecurse nosync nounwind willreturn memory(argmem: write) uwtable
define hidden range(i32 0, 2) i32 @mpd_qsetround(ptr noundef writeonly captures(none) %0, i32 noundef %1) local_unnamed_addr #5 {
  %or.cond = icmp ult i32 %1, 9
  br i1 %or.cond, label %3, label %5

3:                                                ; preds = %2
  %4 = getelementptr inbounds nuw i8, ptr %0, i64 36
  store i32 %1, ptr %4, align 4, !tbaa !15
  br label %5

5:                                                ; preds = %2, %3
  %.0 = phi i32 [ 1, %3 ], [ 0, %2 ]
  ret i32 %.0
}